target datalayout = "e-m:e-p270:32:32-p271:32:32-p272:64:64-i64:64-i128:128-f80:128-n8:16:32:64-S128"
target triple = "x86_64-pc-linux-gnu"

%struct.slurmdb_report_acct_grouping_t = type { ptr, i32, ptr, ptr, ptr }

@.str.66 = private unnamed_addr constant [3 x i8] c"%s\00", align 1
@.str.67 = private unnamed_addr constant [2 x i8] c":\00", align 1

; Function Attrs: nounwind uwtable
define internal i32 @_sort_acct_grouping_dec(ptr noundef %0, ptr noundef %1) #0 {
  %3 = alloca i32, align 4
  %4 = alloca ptr, align 8
  %5 = alloca ptr, align 8
  %6 = alloca i32, align 4
  %7 = alloca [200 x i8], align 16
  %8 = alloca [200 x i8], align 16
  %9 = alloca ptr, align 8
  %10 = alloca ptr, align 8
  %11 = alloca ptr, align 8
  %12 = alloca ptr, align 8
  %13 = alloca i32, align 4
  store ptr %0, ptr %4, align 8
  store ptr %1, ptr %5, align 8
  call void @llvm.lifetime.start.p0(i64 4, ptr %6) #8
  store i32 0, ptr %6, align 4
  call void @llvm.lifetime.start.p0(i64 200, ptr %7) #8
  call void @llvm.lifetime.start.p0(i64 200, ptr %8) #8
  call void @llvm.lifetime.start.p0(i64 8, ptr %9) #8
  store ptr null, ptr %9, align 8
  call void @llvm.lifetime.start.p0(i64 8, ptr %10) #8
  store ptr null, ptr %10, align 8
  call void @llvm.lifetime.start.p0(i64 8, ptr %11) #8
  call void @llvm.lifetime.start.p0(i64 8, ptr %12) #8
  %14 = load ptr, ptr %4, align 8
  %15 = load ptr, ptr %14, align 8
  store ptr %15, ptr %11, align 8
  %16 = load ptr, ptr %5, align 8
  %17 = load ptr, ptr %16, align 8
  store ptr %17, ptr %12, align 8
  %18 = load ptr, ptr %11, align 8
  %19 = getelementptr inbounds nuw %struct.slurmdb_report_acct_grouping_t, ptr %18, i32 0, i32 0
  %20 = load ptr, ptr %19, align 8
  %21 = icmp ne ptr %20, null
  br i1 %21, label %22, label %27

22:                                               ; preds = %2
  %23 = load ptr, ptr %12, align 8
  %24 = getelementptr inbounds nuw %struct.slurmdb_report_acct_grouping_t, ptr %23, i32 0, i32 0
  %25 = load ptr, ptr %24, align 8
  %26 = icmp ne ptr %25, null
  br i1 %26, label %28, label %27

27:                                               ; preds = %22, %2
  store i32 0, ptr %3, align 4
  store i32 1, ptr %13, align 4
  br label %84

28:                                               ; preds = %22
  %29 = getelementptr inbounds [200 x i8], ptr %7, i64 0, i64 0
  %30 = load ptr, ptr %11, align 8
  %31 = getelementptr inbounds nuw %struct.slurmdb_report_acct_grouping_t, ptr %30, i32 0, i32 0
  %32 = load ptr, ptr %31, align 8
  %33 = call i32 (ptr, i64, ptr, ...) @snprintf(ptr noundef %29, i64 noundef 200, ptr noundef @.str.66, ptr noundef %32) #8
  %34 = getelementptr inbounds [200 x i8], ptr %8, i64 0, i64 0
  %35 = load ptr, ptr %12, align 8
  %36 = getelementptr inbounds nuw %struct.slurmdb_report_acct_grouping_t, ptr %35, i32 0, i32 0
  %37 = load ptr, ptr %36, align 8
  %38 = call i32 (ptr, i64, ptr, ...) @snprintf(ptr noundef %34, i64 noundef 200, ptr noundef @.str.66, ptr noundef %37) #8
  %39 = getelementptr inbounds [200 x i8], ptr %7, i64 0, i64 0
  %40 = call ptr @strstr(ptr noundef %39, ptr noundef @.str.67) #9
  store ptr %40, ptr %9, align 8
  %41 = icmp ne ptr %40, null
  br i1 %41, label %42, label %45

42:                                               ; preds = %28
  %43 = load ptr, ptr %9, align 8
  %44 = getelementptr inbounds nuw i8, ptr %43, i32 1
  store ptr %44, ptr %9, align 8
  store i8 0, ptr %43, align 1
  br label %45

45:                                               ; preds = %42, %28
  %46 = getelementptr inbounds [200 x i8], ptr %8, i64 0, i64 0
  %47 = call ptr @strstr(ptr noundef %46, ptr noundef @.str.67) #9
  store ptr %47, ptr %10, align 8
  %48 = icmp ne ptr %47, null
  br i1 %48, label %49, label %52

49:                                               ; preds = %45
  %50 = load ptr, ptr %10, align 8
  %51 = getelementptr inbounds nuw i8, ptr %50, i32 1
  store ptr %51, ptr %10, align 8
  store i8 0, ptr %50, align 1
  br label %52

52:                                               ; preds = %49, %45
  %53 = getelementptr inbounds [200 x i8], ptr %7, i64 0, i64 0
  %54 = getelementptr inbounds [200 x i8], ptr %8, i64 0, i64 0
  %55 = call i32 @xstrcmp(ptr noundef %53, ptr noundef %54)
  store i32 %55, ptr %6, align 4
  %56 = load i32, ptr %6, align 4
  %57 = icmp sgt i32 %56, 0
  br i1 %57, label %58, label %59

58:                                               ; preds = %52
  store i32 1, ptr %3, align 4
  store i32 1, ptr %13, align 4
  br label %84

59:                                               ; preds = %52
  %60 = load i32, ptr %6, align 4
  %61 = icmp slt i32 %60, 0
  br i1 %61, label %62, label %63

62:                                               ; preds = %59
  store i32 -1, ptr %3, align 4
  store i32 1, ptr %13, align 4
  br label %84

63:                                               ; preds = %59
  br label %64

64:                                               ; preds = %63
  %65 = load ptr, ptr %9, align 8
  %66 = icmp ne ptr %65, null
  br i1 %66, label %67, label %70

67:                                               ; preds = %64
  %68 = load ptr, ptr %10, align 8
  %69 = icmp ne ptr %68, null
  br i1 %69, label %71, label %70

70:                                               ; preds = %67, %64
  store i32 0, ptr %3, align 4
  store i32 1, ptr %13, align 4
  br label %84

71:                                               ; preds = %67
  %72 = load ptr, ptr %9, align 8
  %73 = load ptr, ptr %10, align 8
  %74 = call i32 @xstrcmp(ptr noundef %72, ptr noundef %73)
  store i32 %74, ptr %6, align 4
  %75 = load i32, ptr %6, align 4
  %76 = icmp sgt i32 %75, 0
  br i1 %76, label %77, label %78

77:                                               ; preds = %71
  store i32 1, ptr %3, align 4
  store i32 1, ptr %13, align 4
  br label %84

78:                                               ; preds = %71
  %79 = load i32, ptr %6, align 4
  %80 = icmp slt i32 %79, 0
  br i1 %80, label %81, label %82

81:                                               ; preds = %78
  store i32 -1, ptr %3, align 4
  store i32 1, ptr %13, align 4
  br label %84

82:                                               ; preds = %78
  br label %83

83:                                               ; preds = %82
  store i32 0, ptr %3, align 4
  store i32 1, ptr %13, align 4
  br label %84

84:                                               ; preds = %83, %81, %77, %70, %62, %58, %27
  call void @llvm.lifetime.end.p0(i64 8, ptr %12) #8
  call void @llvm.lifetime.end.p0(i64 8, ptr %11) #8
  call void @llvm.lifetime.end.p0(i64 8, ptr %10) #8
  call void @llvm.lifetime.end.p0(i64 8, ptr %9) #8
  call void @llvm.lifetime.end.p0(i64 200, ptr %8) #8
  call void @llvm.lifetime.end.p0(i64 200, ptr %7) #8
  call void @llvm.lifetime.end.p0(i64 4, ptr %6) #8
  %85 = load i32, ptr %3, align 4
  ret i32 %85
}