; Function Attrs: nounwind uwtable
define internal range(i32 -1, 2) i32 @_sort_acct_grouping_dec(ptr noundef readonly captures(none) %0, ptr noundef readonly captures(none) %1) #0 {
  %3 = alloca [200 x i8], align 16
  %4 = alloca [200 x i8], align 16
  call void @llvm.lifetime.start.p0(i64 200, ptr nonnull %3) #12
  call void @llvm.lifetime.start.p0(i64 200, ptr nonnull %4) #12
  %5 = load ptr, ptr %0, align 8
  %6 = load ptr, ptr %1, align 8
  %7 = load ptr, ptr %5, align 8
  %.not = icmp eq ptr %7, null
  br i1 %.not, label %31, label %8

8:                                                ; preds = %2
  %9 = load ptr, ptr %6, align 8
  %.not25 = icmp eq ptr %9, null
  br i1 %.not25, label %31, label %10

10:                                               ; preds = %8
  %11 = call i32 (ptr, i64, ptr, ...) @snprintf(ptr noundef nonnull dereferenceable(1) %3, i64 noundef 200, ptr noundef nonnull @.str.66, ptr noundef nonnull %7) #12
  %12 = load ptr, ptr %6, align 8
  %13 = call i32 (ptr, i64, ptr, ...) @snprintf(ptr noundef nonnull dereferenceable(1) %4, i64 noundef 200, ptr noundef nonnull @.str.66, ptr noundef %12) #12
  %strchr = call ptr @strchr(ptr noundef nonnull dereferenceable(1) %3, i32 58)
  %.not26 = icmp eq ptr %strchr, null
  br i1 %.not26, label %16, label %14

14:                                               ; preds = %10
  %15 = getelementptr inbounds nuw i8, ptr %strchr, i64 1
  store i8 0, ptr %strchr, align 1
  br label %16

16:                                               ; preds = %14, %10
  %.018 = phi ptr [ %15, %14 ], [ null, %10 ]
  %strchr27 = call ptr @strchr(ptr noundef nonnull dereferenceable(1) %4, i32 58)
  %.not28 = icmp eq ptr %strchr27, null
  br i1 %.not28, label %19, label %17

17:                                               ; preds = %16
  %18 = getelementptr inbounds nuw i8, ptr %strchr27, i64 1
  store i8 0, ptr %strchr27, align 1
  br label %19

19:                                               ; preds = %17, %16
  %.017 = phi ptr [ %18, %17 ], [ null, %16 ]
  %20 = call i32 @xstrcmp(ptr noundef nonnull %3, ptr noundef nonnull %4) #12
  %21 = icmp sgt i32 %20, 0
  br i1 %21, label %31, label %22

22:                                               ; preds = %19
  %23 = icmp slt i32 %20, 0
  br i1 %23, label %31, label %24

24:                                               ; preds = %22
  %25 = icmp ne ptr %.018, null
  %26 = icmp ne ptr %.017, null
  %or.cond = select i1 %25, i1 %26, i1 false
  br i1 %or.cond, label %27, label %31

27:                                               ; preds = %24
  %28 = call i32 @xstrcmp(ptr noundef nonnull %.018, ptr noundef nonnull %.017) #12
  %29 = icmp sgt i32 %28, 0
  br i1 %29, label %31, label %30

30:                                               ; preds = %27
  %.not29 = icmp ne i32 %28, 0
  %. = sext i1 %.not29 to i32
  br label %31

31:                                               ; preds = %30, %27, %24, %22, %19, %2, %8
  %.0 = phi i32 [ 0, %8 ], [ 0, %2 ], [ 1, %19 ], [ -1, %22 ], [ 0, %24 ], [ 1, %27 ], [ %., %30 ]
  call void @llvm.lifetime.end.p0(i64 200, ptr nonnull %4) #12
  call void @llvm.lifetime.end.p0(i64 200, ptr nonnull %3) #12
  ret i32 %.0
}